
GraduationEmbeddedSide.elf:     file format elf32-avr

Sections:
Idx Name          Size      VMA       LMA       File off  Algn
  0 .data         00000000  00800100  00800100  00000478  2**0
                  CONTENTS, ALLOC, LOAD, DATA
  1 .text         00000404  00000000  00000000  00000074  2**1
                  CONTENTS, ALLOC, LOAD, READONLY, CODE
  2 .bss          00000277  00800100  00800100  00000478  2**0
                  ALLOC
  3 .comment      00000030  00000000  00000000  00000478  2**0
                  CONTENTS, READONLY
  4 .note.gnu.avr.deviceinfo 00000040  00000000  00000000  000004a8  2**2
                  CONTENTS, READONLY
  5 .debug_aranges 00000100  00000000  00000000  000004e8  2**0
                  CONTENTS, READONLY, DEBUGGING
  6 .debug_info   00001f8c  00000000  00000000  000005e8  2**0
                  CONTENTS, READONLY, DEBUGGING
  7 .debug_abbrev 00000aa2  00000000  00000000  00002574  2**0
                  CONTENTS, READONLY, DEBUGGING
  8 .debug_line   00000b85  00000000  00000000  00003016  2**0
                  CONTENTS, READONLY, DEBUGGING
  9 .debug_frame  00000470  00000000  00000000  00003b9c  2**2
                  CONTENTS, READONLY, DEBUGGING
 10 .debug_str    00000c7f  00000000  00000000  0000400c  2**0
                  CONTENTS, READONLY, DEBUGGING
 11 .debug_loc    0000103b  00000000  00000000  00004c8b  2**0
                  CONTENTS, READONLY, DEBUGGING
 12 .debug_ranges 000000d0  00000000  00000000  00005cc6  2**0
                  CONTENTS, READONLY, DEBUGGING

Disassembly of section .text:

00000000 <__vectors>:
   0:	45 c0       	rjmp	.+138    	; 0x8c <__ctors_end>
   2:	00 00       	nop
   4:	a5 c0       	rjmp	.+330    	; 0x150 <__vector_1>
   6:	00 00       	nop
   8:	ce c0       	rjmp	.+412    	; 0x1a6 <__vector_2>
   a:	00 00       	nop
   c:	f7 c0       	rjmp	.+494    	; 0x1fc <__vector_3>
   e:	00 00       	nop
  10:	20 c1       	rjmp	.+576    	; 0x252 <__vector_4>
  12:	00 00       	nop
  14:	49 c1       	rjmp	.+658    	; 0x2a8 <__vector_5>
  16:	00 00       	nop
  18:	72 c1       	rjmp	.+740    	; 0x2fe <__vector_6>
  1a:	00 00       	nop
  1c:	9b c1       	rjmp	.+822    	; 0x354 <__vector_7>
  1e:	00 00       	nop
  20:	c4 c1       	rjmp	.+904    	; 0x3aa <__vector_8>
  22:	00 00       	nop
  24:	50 c0       	rjmp	.+160    	; 0xc6 <__bad_interrupt>
  26:	00 00       	nop
  28:	4e c0       	rjmp	.+156    	; 0xc6 <__bad_interrupt>
  2a:	00 00       	nop
  2c:	4c c0       	rjmp	.+152    	; 0xc6 <__bad_interrupt>
  2e:	00 00       	nop
  30:	4a c0       	rjmp	.+148    	; 0xc6 <__bad_interrupt>
  32:	00 00       	nop
  34:	48 c0       	rjmp	.+144    	; 0xc6 <__bad_interrupt>
  36:	00 00       	nop
  38:	46 c0       	rjmp	.+140    	; 0xc6 <__bad_interrupt>
  3a:	00 00       	nop
  3c:	44 c0       	rjmp	.+136    	; 0xc6 <__bad_interrupt>
  3e:	00 00       	nop
  40:	42 c0       	rjmp	.+132    	; 0xc6 <__bad_interrupt>
  42:	00 00       	nop
  44:	40 c0       	rjmp	.+128    	; 0xc6 <__bad_interrupt>
  46:	00 00       	nop
  48:	3e c0       	rjmp	.+124    	; 0xc6 <__bad_interrupt>
  4a:	00 00       	nop
  4c:	3c c0       	rjmp	.+120    	; 0xc6 <__bad_interrupt>
  4e:	00 00       	nop
  50:	3a c0       	rjmp	.+116    	; 0xc6 <__bad_interrupt>
  52:	00 00       	nop
  54:	38 c0       	rjmp	.+112    	; 0xc6 <__bad_interrupt>
  56:	00 00       	nop
  58:	36 c0       	rjmp	.+108    	; 0xc6 <__bad_interrupt>
  5a:	00 00       	nop
  5c:	34 c0       	rjmp	.+104    	; 0xc6 <__bad_interrupt>
  5e:	00 00       	nop
  60:	32 c0       	rjmp	.+100    	; 0xc6 <__bad_interrupt>
  62:	00 00       	nop
  64:	30 c0       	rjmp	.+96     	; 0xc6 <__bad_interrupt>
  66:	00 00       	nop
  68:	2e c0       	rjmp	.+92     	; 0xc6 <__bad_interrupt>
  6a:	00 00       	nop
  6c:	2c c0       	rjmp	.+88     	; 0xc6 <__bad_interrupt>
  6e:	00 00       	nop
  70:	2a c0       	rjmp	.+84     	; 0xc6 <__bad_interrupt>
  72:	00 00       	nop
  74:	28 c0       	rjmp	.+80     	; 0xc6 <__bad_interrupt>
  76:	00 00       	nop
  78:	27 c0       	rjmp	.+78     	; 0xc8 <__vector_30>
  7a:	00 00       	nop
  7c:	24 c0       	rjmp	.+72     	; 0xc6 <__bad_interrupt>
  7e:	00 00       	nop
  80:	22 c0       	rjmp	.+68     	; 0xc6 <__bad_interrupt>
  82:	00 00       	nop
  84:	20 c0       	rjmp	.+64     	; 0xc6 <__bad_interrupt>
  86:	00 00       	nop
  88:	1e c0       	rjmp	.+60     	; 0xc6 <__bad_interrupt>
	...

0000008c <__ctors_end>:
  8c:	11 24       	eor	r1, r1
  8e:	1f be       	out	0x3f, r1	; 63
  90:	cf ef       	ldi	r28, 0xFF	; 255
  92:	d0 e1       	ldi	r29, 0x10	; 16
  94:	de bf       	out	0x3e, r29	; 62
  96:	cd bf       	out	0x3d, r28	; 61

00000098 <__do_copy_data>:
  98:	11 e0       	ldi	r17, 0x01	; 1
  9a:	a0 e0       	ldi	r26, 0x00	; 0
  9c:	b1 e0       	ldi	r27, 0x01	; 1
  9e:	e4 e0       	ldi	r30, 0x04	; 4
  a0:	f4 e0       	ldi	r31, 0x04	; 4
  a2:	00 e0       	ldi	r16, 0x00	; 0
  a4:	0b bf       	out	0x3b, r16	; 59
  a6:	02 c0       	rjmp	.+4      	; 0xac <__do_copy_data+0x14>
  a8:	07 90       	elpm	r0, Z+
  aa:	0d 92       	st	X+, r0
  ac:	a0 30       	cpi	r26, 0x00	; 0
  ae:	b1 07       	cpc	r27, r17
  b0:	d9 f7       	brne	.-10     	; 0xa8 <__do_copy_data+0x10>

000000b2 <__do_clear_bss>:
  b2:	23 e0       	ldi	r18, 0x03	; 3
  b4:	a0 e0       	ldi	r26, 0x00	; 0
  b6:	b1 e0       	ldi	r27, 0x01	; 1
  b8:	01 c0       	rjmp	.+2      	; 0xbc <.do_clear_bss_start>

000000ba <.do_clear_bss_loop>:
  ba:	1d 92       	st	X+, r1

000000bc <.do_clear_bss_start>:
  bc:	a7 37       	cpi	r26, 0x77	; 119
  be:	b2 07       	cpc	r27, r18
  c0:	e1 f7       	brne	.-8      	; 0xba <.do_clear_bss_loop>
  c2:	45 d0       	rcall	.+138    	; 0x14e <main>
  c4:	9d c1       	rjmp	.+826    	; 0x400 <_exit>

000000c6 <__bad_interrupt>:
  c6:	9c cf       	rjmp	.-200    	; 0x0 <__vectors>

000000c8 <__vector_30>:
	return size;
}


ISR(USART1_RX_vect)
{
  c8:	1f 92       	push	r1
  ca:	0f 92       	push	r0
  cc:	0f b6       	in	r0, 0x3f	; 63
  ce:	0f 92       	push	r0
  d0:	11 24       	eor	r1, r1
  d2:	0b b6       	in	r0, 0x3b	; 59
  d4:	0f 92       	push	r0
  d6:	2f 93       	push	r18
  d8:	3f 93       	push	r19
  da:	8f 93       	push	r24
  dc:	9f 93       	push	r25
  de:	ef 93       	push	r30
  e0:	ff 93       	push	r31
	temp = UDR1_Register;
  e2:	80 91 9c 00 	lds	r24, 0x009C	; 0x80009c <__TEXT_REGION_LENGTH__+0x7e009c>
  e6:	80 93 45 03 	sts	0x0345, r24	; 0x800345 <temp>
	switch(temp)
  ea:	8a 30       	cpi	r24, 0x0A	; 10
  ec:	19 f0       	breq	.+6      	; 0xf4 <__vector_30+0x2c>
  ee:	8d 30       	cpi	r24, 0x0D	; 13
  f0:	59 f0       	breq	.+22     	; 0x108 <__vector_30+0x40>
  f2:	12 c0       	rjmp	.+36     	; 0x118 <__vector_30+0x50>
	{
		case LF:
			if(data_len > 1)
  f4:	80 91 6e 03 	lds	r24, 0x036E	; 0x80036e <data_len>
  f8:	90 91 6f 03 	lds	r25, 0x036F	; 0x80036f <data_len+0x1>
  fc:	02 97       	sbiw	r24, 0x02	; 2
  fe:	d0 f0       	brcs	.+52     	; 0x134 <__vector_30+0x6c>
			{
				data_ready = 1;
 100:	81 e0       	ldi	r24, 0x01	; 1
 102:	80 93 12 01 	sts	0x0112, r24	; 0x800112 <data_ready>
 106:	16 c0       	rjmp	.+44     	; 0x134 <__vector_30+0x6c>
			}
			break;
		case CR:
			rx_buff[data_len] = 0;
 108:	e0 91 6e 03 	lds	r30, 0x036E	; 0x80036e <data_len>
 10c:	f0 91 6f 03 	lds	r31, 0x036F	; 0x80036f <data_len+0x1>
 110:	e9 5d       	subi	r30, 0xD9	; 217
 112:	fe 4f       	sbci	r31, 0xFE	; 254
 114:	10 82       	st	Z, r1
			break;
 116:	0e c0       	rjmp	.+28     	; 0x134 <__vector_30+0x6c>
		default:
			rx_buff[data_len] = temp;
 118:	20 91 6e 03 	lds	r18, 0x036E	; 0x80036e <data_len>
 11c:	30 91 6f 03 	lds	r19, 0x036F	; 0x80036f <data_len+0x1>
 120:	f9 01       	movw	r30, r18
 122:	e9 5d       	subi	r30, 0xD9	; 217
 124:	fe 4f       	sbci	r31, 0xFE	; 254
 126:	80 83       	st	Z, r24
			data_len++;
 128:	2f 5f       	subi	r18, 0xFF	; 255
 12a:	3f 4f       	sbci	r19, 0xFF	; 255
 12c:	30 93 6f 03 	sts	0x036F, r19	; 0x80036f <data_len+0x1>
 130:	20 93 6e 03 	sts	0x036E, r18	; 0x80036e <data_len>
			break;
	}
 134:	ff 91       	pop	r31
 136:	ef 91       	pop	r30
 138:	9f 91       	pop	r25
 13a:	8f 91       	pop	r24
 13c:	3f 91       	pop	r19
 13e:	2f 91       	pop	r18
 140:	0f 90       	pop	r0
 142:	0b be       	out	0x3b, r0	; 59
 144:	0f 90       	pop	r0
 146:	0f be       	out	0x3f, r0	; 63
 148:	0f 90       	pop	r0
 14a:	1f 90       	pop	r1
 14c:	18 95       	reti

0000014e <main>:
#include "HAL/ESP01/ESP01.h"

int main()
{
 14e:	ff cf       	rjmp	.-2      	; 0x14e <main>

00000150 <__vector_1>:
			break;
	}
}

ISR(INT0_vect)
{
 150:	1f 92       	push	r1
 152:	0f 92       	push	r0
 154:	0f b6       	in	r0, 0x3f	; 63
 156:	0f 92       	push	r0
 158:	11 24       	eor	r1, r1
 15a:	0b b6       	in	r0, 0x3b	; 59
 15c:	0f 92       	push	r0
 15e:	2f 93       	push	r18
 160:	3f 93       	push	r19
 162:	4f 93       	push	r20
 164:	5f 93       	push	r21
 166:	6f 93       	push	r22
 168:	7f 93       	push	r23
 16a:	8f 93       	push	r24
 16c:	9f 93       	push	r25
 16e:	af 93       	push	r26
 170:	bf 93       	push	r27
 172:	ef 93       	push	r30
 174:	ff 93       	push	r31
	EXT_INTERRUPT0_FUNCTION_PTR();
 176:	e0 91 0e 01 	lds	r30, 0x010E	; 0x80010e <EXT_INTERRUPT0_FUNCTION_PTR>
 17a:	f0 91 0f 01 	lds	r31, 0x010F	; 0x80010f <EXT_INTERRUPT0_FUNCTION_PTR+0x1>
 17e:	09 95       	icall
}
 180:	ff 91       	pop	r31
 182:	ef 91       	pop	r30
 184:	bf 91       	pop	r27
 186:	af 91       	pop	r26
 188:	9f 91       	pop	r25
 18a:	8f 91       	pop	r24
 18c:	7f 91       	pop	r23
 18e:	6f 91       	pop	r22
 190:	5f 91       	pop	r21
 192:	4f 91       	pop	r20
 194:	3f 91       	pop	r19
 196:	2f 91       	pop	r18
 198:	0f 90       	pop	r0
 19a:	0b be       	out	0x3b, r0	; 59
 19c:	0f 90       	pop	r0
 19e:	0f be       	out	0x3f, r0	; 63
 1a0:	0f 90       	pop	r0
 1a2:	1f 90       	pop	r1
 1a4:	18 95       	reti

000001a6 <__vector_2>:

ISR(INT1_vect)
{
 1a6:	1f 92       	push	r1
 1a8:	0f 92       	push	r0
 1aa:	0f b6       	in	r0, 0x3f	; 63
 1ac:	0f 92       	push	r0
 1ae:	11 24       	eor	r1, r1
 1b0:	0b b6       	in	r0, 0x3b	; 59
 1b2:	0f 92       	push	r0
 1b4:	2f 93       	push	r18
 1b6:	3f 93       	push	r19
 1b8:	4f 93       	push	r20
 1ba:	5f 93       	push	r21
 1bc:	6f 93       	push	r22
 1be:	7f 93       	push	r23
 1c0:	8f 93       	push	r24
 1c2:	9f 93       	push	r25
 1c4:	af 93       	push	r26
 1c6:	bf 93       	push	r27
 1c8:	ef 93       	push	r30
 1ca:	ff 93       	push	r31
	EXT_INTERRUPT1_FUNCTION_PTR();
 1cc:	e0 91 0c 01 	lds	r30, 0x010C	; 0x80010c <EXT_INTERRUPT1_FUNCTION_PTR>
 1d0:	f0 91 0d 01 	lds	r31, 0x010D	; 0x80010d <EXT_INTERRUPT1_FUNCTION_PTR+0x1>
 1d4:	09 95       	icall
}
 1d6:	ff 91       	pop	r31
 1d8:	ef 91       	pop	r30
 1da:	bf 91       	pop	r27
 1dc:	af 91       	pop	r26
 1de:	9f 91       	pop	r25
 1e0:	8f 91       	pop	r24
 1e2:	7f 91       	pop	r23
 1e4:	6f 91       	pop	r22
 1e6:	5f 91       	pop	r21
 1e8:	4f 91       	pop	r20
 1ea:	3f 91       	pop	r19
 1ec:	2f 91       	pop	r18
 1ee:	0f 90       	pop	r0
 1f0:	0b be       	out	0x3b, r0	; 59
 1f2:	0f 90       	pop	r0
 1f4:	0f be       	out	0x3f, r0	; 63
 1f6:	0f 90       	pop	r0
 1f8:	1f 90       	pop	r1
 1fa:	18 95       	reti

000001fc <__vector_3>:

ISR(INT2_vect)
{
 1fc:	1f 92       	push	r1
 1fe:	0f 92       	push	r0
 200:	0f b6       	in	r0, 0x3f	; 63
 202:	0f 92       	push	r0
 204:	11 24       	eor	r1, r1
 206:	0b b6       	in	r0, 0x3b	; 59
 208:	0f 92       	push	r0
 20a:	2f 93       	push	r18
 20c:	3f 93       	push	r19
 20e:	4f 93       	push	r20
 210:	5f 93       	push	r21
 212:	6f 93       	push	r22
 214:	7f 93       	push	r23
 216:	8f 93       	push	r24
 218:	9f 93       	push	r25
 21a:	af 93       	push	r26
 21c:	bf 93       	push	r27
 21e:	ef 93       	push	r30
 220:	ff 93       	push	r31
	EXT_INTERRUPT2_FUNCTION_PTR();
 222:	e0 91 0a 01 	lds	r30, 0x010A	; 0x80010a <EXT_INTERRUPT2_FUNCTION_PTR>
 226:	f0 91 0b 01 	lds	r31, 0x010B	; 0x80010b <EXT_INTERRUPT2_FUNCTION_PTR+0x1>
 22a:	09 95       	icall
}
 22c:	ff 91       	pop	r31
 22e:	ef 91       	pop	r30
 230:	bf 91       	pop	r27
 232:	af 91       	pop	r26
 234:	9f 91       	pop	r25
 236:	8f 91       	pop	r24
 238:	7f 91       	pop	r23
 23a:	6f 91       	pop	r22
 23c:	5f 91       	pop	r21
 23e:	4f 91       	pop	r20
 240:	3f 91       	pop	r19
 242:	2f 91       	pop	r18
 244:	0f 90       	pop	r0
 246:	0b be       	out	0x3b, r0	; 59
 248:	0f 90       	pop	r0
 24a:	0f be       	out	0x3f, r0	; 63
 24c:	0f 90       	pop	r0
 24e:	1f 90       	pop	r1
 250:	18 95       	reti

00000252 <__vector_4>:

ISR(INT3_vect)
{
 252:	1f 92       	push	r1
 254:	0f 92       	push	r0
 256:	0f b6       	in	r0, 0x3f	; 63
 258:	0f 92       	push	r0
 25a:	11 24       	eor	r1, r1
 25c:	0b b6       	in	r0, 0x3b	; 59
 25e:	0f 92       	push	r0
 260:	2f 93       	push	r18
 262:	3f 93       	push	r19
 264:	4f 93       	push	r20
 266:	5f 93       	push	r21
 268:	6f 93       	push	r22
 26a:	7f 93       	push	r23
 26c:	8f 93       	push	r24
 26e:	9f 93       	push	r25
 270:	af 93       	push	r26
 272:	bf 93       	push	r27
 274:	ef 93       	push	r30
 276:	ff 93       	push	r31
	EXT_INTERRUPT3_FUNCTION_PTR();
 278:	e0 91 08 01 	lds	r30, 0x0108	; 0x800108 <EXT_INTERRUPT3_FUNCTION_PTR>
 27c:	f0 91 09 01 	lds	r31, 0x0109	; 0x800109 <EXT_INTERRUPT3_FUNCTION_PTR+0x1>
 280:	09 95       	icall
}
 282:	ff 91       	pop	r31
 284:	ef 91       	pop	r30
 286:	bf 91       	pop	r27
 288:	af 91       	pop	r26
 28a:	9f 91       	pop	r25
 28c:	8f 91       	pop	r24
 28e:	7f 91       	pop	r23
 290:	6f 91       	pop	r22
 292:	5f 91       	pop	r21
 294:	4f 91       	pop	r20
 296:	3f 91       	pop	r19
 298:	2f 91       	pop	r18
 29a:	0f 90       	pop	r0
 29c:	0b be       	out	0x3b, r0	; 59
 29e:	0f 90       	pop	r0
 2a0:	0f be       	out	0x3f, r0	; 63
 2a2:	0f 90       	pop	r0
 2a4:	1f 90       	pop	r1
 2a6:	18 95       	reti

000002a8 <__vector_5>:

ISR(INT4_vect)
{
 2a8:	1f 92       	push	r1
 2aa:	0f 92       	push	r0
 2ac:	0f b6       	in	r0, 0x3f	; 63
 2ae:	0f 92       	push	r0
 2b0:	11 24       	eor	r1, r1
 2b2:	0b b6       	in	r0, 0x3b	; 59
 2b4:	0f 92       	push	r0
 2b6:	2f 93       	push	r18
 2b8:	3f 93       	push	r19
 2ba:	4f 93       	push	r20
 2bc:	5f 93       	push	r21
 2be:	6f 93       	push	r22
 2c0:	7f 93       	push	r23
 2c2:	8f 93       	push	r24
 2c4:	9f 93       	push	r25
 2c6:	af 93       	push	r26
 2c8:	bf 93       	push	r27
 2ca:	ef 93       	push	r30
 2cc:	ff 93       	push	r31
	EXT_INTERRUPT4_FUNCTION_PTR();
 2ce:	e0 91 06 01 	lds	r30, 0x0106	; 0x800106 <EXT_INTERRUPT4_FUNCTION_PTR>
 2d2:	f0 91 07 01 	lds	r31, 0x0107	; 0x800107 <EXT_INTERRUPT4_FUNCTION_PTR+0x1>
 2d6:	09 95       	icall
}
 2d8:	ff 91       	pop	r31
 2da:	ef 91       	pop	r30
 2dc:	bf 91       	pop	r27
 2de:	af 91       	pop	r26
 2e0:	9f 91       	pop	r25
 2e2:	8f 91       	pop	r24
 2e4:	7f 91       	pop	r23
 2e6:	6f 91       	pop	r22
 2e8:	5f 91       	pop	r21
 2ea:	4f 91       	pop	r20
 2ec:	3f 91       	pop	r19
 2ee:	2f 91       	pop	r18
 2f0:	0f 90       	pop	r0
 2f2:	0b be       	out	0x3b, r0	; 59
 2f4:	0f 90       	pop	r0
 2f6:	0f be       	out	0x3f, r0	; 63
 2f8:	0f 90       	pop	r0
 2fa:	1f 90       	pop	r1
 2fc:	18 95       	reti

000002fe <__vector_6>:

ISR(INT5_vect)
{
 2fe:	1f 92       	push	r1
 300:	0f 92       	push	r0
 302:	0f b6       	in	r0, 0x3f	; 63
 304:	0f 92       	push	r0
 306:	11 24       	eor	r1, r1
 308:	0b b6       	in	r0, 0x3b	; 59
 30a:	0f 92       	push	r0
 30c:	2f 93       	push	r18
 30e:	3f 93       	push	r19
 310:	4f 93       	push	r20
 312:	5f 93       	push	r21
 314:	6f 93       	push	r22
 316:	7f 93       	push	r23
 318:	8f 93       	push	r24
 31a:	9f 93       	push	r25
 31c:	af 93       	push	r26
 31e:	bf 93       	push	r27
 320:	ef 93       	push	r30
 322:	ff 93       	push	r31
	EXT_INTERRUPT5_FUNCTION_PTR();
 324:	e0 91 04 01 	lds	r30, 0x0104	; 0x800104 <EXT_INTERRUPT5_FUNCTION_PTR>
 328:	f0 91 05 01 	lds	r31, 0x0105	; 0x800105 <EXT_INTERRUPT5_FUNCTION_PTR+0x1>
 32c:	09 95       	icall
}
 32e:	ff 91       	pop	r31
 330:	ef 91       	pop	r30
 332:	bf 91       	pop	r27
 334:	af 91       	pop	r26
 336:	9f 91       	pop	r25
 338:	8f 91       	pop	r24
 33a:	7f 91       	pop	r23
 33c:	6f 91       	pop	r22
 33e:	5f 91       	pop	r21
 340:	4f 91       	pop	r20
 342:	3f 91       	pop	r19
 344:	2f 91       	pop	r18
 346:	0f 90       	pop	r0
 348:	0b be       	out	0x3b, r0	; 59
 34a:	0f 90       	pop	r0
 34c:	0f be       	out	0x3f, r0	; 63
 34e:	0f 90       	pop	r0
 350:	1f 90       	pop	r1
 352:	18 95       	reti

00000354 <__vector_7>:

ISR(INT6_vect)
{
 354:	1f 92       	push	r1
 356:	0f 92       	push	r0
 358:	0f b6       	in	r0, 0x3f	; 63
 35a:	0f 92       	push	r0
 35c:	11 24       	eor	r1, r1
 35e:	0b b6       	in	r0, 0x3b	; 59
 360:	0f 92       	push	r0
 362:	2f 93       	push	r18
 364:	3f 93       	push	r19
 366:	4f 93       	push	r20
 368:	5f 93       	push	r21
 36a:	6f 93       	push	r22
 36c:	7f 93       	push	r23
 36e:	8f 93       	push	r24
 370:	9f 93       	push	r25
 372:	af 93       	push	r26
 374:	bf 93       	push	r27
 376:	ef 93       	push	r30
 378:	ff 93       	push	r31
	EXT_INTERRUPT6_FUNCTION_PTR();
 37a:	e0 91 02 01 	lds	r30, 0x0102	; 0x800102 <EXT_INTERRUPT6_FUNCTION_PTR>
 37e:	f0 91 03 01 	lds	r31, 0x0103	; 0x800103 <EXT_INTERRUPT6_FUNCTION_PTR+0x1>
 382:	09 95       	icall
}
 384:	ff 91       	pop	r31
 386:	ef 91       	pop	r30
 388:	bf 91       	pop	r27
 38a:	af 91       	pop	r26
 38c:	9f 91       	pop	r25
 38e:	8f 91       	pop	r24
 390:	7f 91       	pop	r23
 392:	6f 91       	pop	r22
 394:	5f 91       	pop	r21
 396:	4f 91       	pop	r20
 398:	3f 91       	pop	r19
 39a:	2f 91       	pop	r18
 39c:	0f 90       	pop	r0
 39e:	0b be       	out	0x3b, r0	; 59
 3a0:	0f 90       	pop	r0
 3a2:	0f be       	out	0x3f, r0	; 63
 3a4:	0f 90       	pop	r0
 3a6:	1f 90       	pop	r1
 3a8:	18 95       	reti

000003aa <__vector_8>:

ISR(INT7_vect)
{
 3aa:	1f 92       	push	r1
 3ac:	0f 92       	push	r0
 3ae:	0f b6       	in	r0, 0x3f	; 63
 3b0:	0f 92       	push	r0
 3b2:	11 24       	eor	r1, r1
 3b4:	0b b6       	in	r0, 0x3b	; 59
 3b6:	0f 92       	push	r0
 3b8:	2f 93       	push	r18
 3ba:	3f 93       	push	r19
 3bc:	4f 93       	push	r20
 3be:	5f 93       	push	r21
 3c0:	6f 93       	push	r22
 3c2:	7f 93       	push	r23
 3c4:	8f 93       	push	r24
 3c6:	9f 93       	push	r25
 3c8:	af 93       	push	r26
 3ca:	bf 93       	push	r27
 3cc:	ef 93       	push	r30
 3ce:	ff 93       	push	r31
	EXT_INTERRUPT7_FUNCTION_PTR();
 3d0:	e0 91 00 01 	lds	r30, 0x0100	; 0x800100 <__DATA_REGION_ORIGIN__>
 3d4:	f0 91 01 01 	lds	r31, 0x0101	; 0x800101 <__DATA_REGION_ORIGIN__+0x1>
 3d8:	09 95       	icall
 3da:	ff 91       	pop	r31
 3dc:	ef 91       	pop	r30
 3de:	bf 91       	pop	r27
 3e0:	af 91       	pop	r26
 3e2:	9f 91       	pop	r25
 3e4:	8f 91       	pop	r24
 3e6:	7f 91       	pop	r23
 3e8:	6f 91       	pop	r22
 3ea:	5f 91       	pop	r21
 3ec:	4f 91       	pop	r20
 3ee:	3f 91       	pop	r19
 3f0:	2f 91       	pop	r18
 3f2:	0f 90       	pop	r0
 3f4:	0b be       	out	0x3b, r0	; 59
 3f6:	0f 90       	pop	r0
 3f8:	0f be       	out	0x3f, r0	; 63
 3fa:	0f 90       	pop	r0
 3fc:	1f 90       	pop	r1
 3fe:	18 95       	reti

00000400 <_exit>:
 400:	f8 94       	cli

00000402 <__stop_program>:
 402:	ff cf       	rjmp	.-2      	; 0x402 <__stop_program>
